Certificate:
    Data:
        Version: 3 (0x2)
        Serial Number: 1 (0x1)
        Signature Algorithm: sha256WithRSAEncryption
        Issuer: CN=Common Name (eg, fully qualified host name), ST=State or Province Name (full name), C=FR/emailAddress=Email@Address, O=Organization Name (eg, company), OU=Organizational Unit Name (eg, section)
        Validity
            Not Before: Apr  2 22:11:49 2023 GMT
            Not After : Apr  1 22:11:49 2024 GMT
        Subject: CN=Common Name (eg, fully qualified host name), ST=State or Province Name (full name), C=FR/emailAddress=Email@Address, O=Organization Name (eg, company), OU=Organizational Unit Name (eg, section)
        Subject Public Key Info:
            Public Key Algorithm: rsaEncryption
                RSA Public-Key: (2048 bit)
                Modulus:
                    00:cb:65:80:cc:52:16:8c:87:d8:1c:94:d5:a0:a7:
                    91:52:06:93:a3:7b:50:c0:6c:08:96:ad:b5:97:1d:
                    da:bf:4d:ea:f7:d9:b2:07:60:b9:de:05:d8:46:bd:
                    44:48:dc:aa:c0:fd:6b:ec:81:8d:65:87:9d:16:28:
                    84:6f:88:dd:a7:5c:e8:4c:9f:ef:48:9e:39:02:8d:
                    ff:cb:fc:f3:75:23:85:52:52:64:ad:24:e1:2e:16:
                    e5:04:a3:2d:3c:5c:29:60:02:6e:bc:b9:d7:9e:9c:
                    06:b7:8a:22:ca:15:76:3f:14:d8:a6:10:52:5e:f6:
                    b1:eb:5a:e7:f4:e6:9e:8f:52:7b:99:42:e9:06:ad:
                    36:bd:1d:a0:bd:dd:9f:ed:70:4b:c7:ee:78:2d:71:
                    78:da:f3:94:c2:4f:f9:cf:da:17:1f:4e:88:66:01:
                    0a:5c:51:4c:95:57:c4:7c:c7:9b:df:6a:0a:1a:2f:
                    99:c9:77:53:ca:78:07:c0:d0:f0:20:29:b0:e2:39:
                    bc:61:84:50:98:d1:5a:e4:73:70:12:8e:71:90:2e:
                    bf:36:70:d3:97:9a:3c:76:fd:37:8f:10:04:13:ea:
                    a3:1a:68:69:c9:60:bc:42:e6:6f:41:73:02:fd:cf:
                    5a:50:04:05:5b:66:47:98:b7:76:7c:c2:e5:bd:0e:
                    37:d7
                Exponent: 65537 (0x10001)
        X509v3 extensions:
            X509v3 Basic Constraints: critical
                CA:TRUE
            X509v3 Key Usage: 
                Digital Signature, Key Encipherment
    Signature Algorithm: sha256WithRSAEncryption
         20:32:bc:f6:26:4a:89:fa:69:dd:db:cf:e0:70:8f:4d:fc:05:
         ad:55:6d:8d:99:09:f7:81:e5:32:85:48:d5:c6:d8:4e:a1:66:
         22:7f:fe:b1:80:b5:24:a8:12:06:6c:02:9f:32:21:18:fa:cf:
         01:43:a2:58:81:92:14:08:31:9b:b5:63:50:40:3e:67:ac:e4:
         77:b1:d2:6a:14:84:a7:a2:cf:dc:0a:f5:d8:82:f5:e7:34:d0:
         1b:5f:08:42:19:76:09:13:bc:bd:33:ac:a3:d8:7f:90:91:e7:
         b8:be:bd:17:97:ba:2c:f0:79:00:83:ec:a1:96:99:5a:0a:9d:
         a7:4f:2c:c8:05:4e:b6:7f:05:c5:72:81:7c:ec:1b:b5:e8:07:
         59:35:3f:ed:a2:5f:13:15:56:9b:8a:1d:af:70:2b:74:62:1f:
         11:29:65:4c:54:6a:00:b2:65:1d:d8:e3:38:67:aa:a3:bb:f9:
         d8:96:4a:1e:64:13:8f:2c:95:03:2b:37:20:b7:d6:67:c5:b3:
         6a:2f:7d:f6:ae:2f:da:3d:cd:7f:21:48:1c:a1:a8:8d:36:f3:
         f5:59:8d:1e:34:9e:23:07:cf:77:12:68:4e:52:38:d9:f5:6a:
         a0:24:f0:9a:e5:ef:39:09:27:c6:06:4b:e6:dd:2a:60:04:e4:
         c4:71:08:1d
-----BEGIN CERTIFICATE-----
MIIEbzCCA1egAwIBAgIBATANBgkqhkiG9w0BAQsFADCB6TE0MDIGA1UEAwwrQ29t
bW9uIE5hbWUgKGVnLCBmdWxseSBxdWFsaWZpZWQgaG9zdCBuYW1lKTErMCkGA1UE
CAwiU3RhdGUgb3IgUHJvdmluY2UgTmFtZSAoZnVsbCBuYW1lKTELMAkGA1UEBhMC
RlIxHDAaBgkqhkiG9w0BCQEWDUVtYWlsQEFkZHJlc3MxKDAmBgNVBAoMH09yZ2Fu
aXphdGlvbiBOYW1lIChlZywgY29tcGFueSkxLzAtBgNVBAsMJk9yZ2FuaXphdGlv
bmFsIFVuaXQgTmFtZSAoZWcsIHNlY3Rpb24pMB4XDTIzMDQwMjIyMTE0OVoXDTI0
MDQwMTIyMTE0OVowgekxNDAyBgNVBAMMK0NvbW1vbiBOYW1lIChlZywgZnVsbHkg
cXVhbGlmaWVkIGhvc3QgbmFtZSkxKzApBgNVBAgMIlN0YXRlIG9yIFByb3ZpbmNl
IE5hbWUgKGZ1bGwgbmFtZSkxCzAJBgNVBAYTAkZSMRwwGgYJKoZIhvcNAQkBFg1F
bWFpbEBBZGRyZXNzMSgwJgYDVQQKDB9Pcmdhbml6YXRpb24gTmFtZSAoZWcsIGNv
bXBhbnkpMS8wLQYDVQQLDCZPcmdhbml6YXRpb25hbCBVbml0IE5hbWUgKGVnLCBz
ZWN0aW9uKTCCASIwDQYJKoZIhvcNAQEBBQADggEPADCCAQoCggEBAMtlgMxSFoyH
2ByU1aCnkVIGk6N7UMBsCJattZcd2r9N6vfZsgdgud4F2Ea9REjcqsD9a+yBjWWH
nRYohG+I3adc6Eyf70ieOQKN/8v883UjhVJSZK0k4S4W5QSjLTxcKWACbry5156c
BreKIsoVdj8U2KYQUl72seta5/Tmno9Se5lC6QatNr0doL3dn+1wS8fueC1xeNrz
lMJP+c/aFx9OiGYBClxRTJVXxHzHm99qChovmcl3U8p4B8DQ8CApsOI5vGGEUJjR
WuRzcBKOcZAuvzZw05eaPHb9N48QBBPqoxpoaclgvELmb0FzAv3PWlAEBVtmR5i3
dnzC5b0ON9cCAwEAAaMgMB4wDwYDVR0TAQH/BAUwAwEB/zALBgNVHQ8EBAMCBaAw
DQYJKoZIhvcNAQELBQADggEBACAyvPYmSon6ad3bz+Bwj038Ba1VbY2ZCfeB5TKF
SNXG2E6hZiJ//rGAtSSoEgZsAp8yIRj6zwFDoliBkhQIMZu1Y1BAPmes5Hex0moU
hKeiz9wK9diC9ec00BtfCEIZdgkTvL0zrKPYf5CR57i+vReXuizweQCD7KGWmVoK
nadPLMgFTrZ/BcVygXzsG7XoB1k1P+2iXxMVVpuKHa9wK3RiHxEpZUxUagCyZR3Y
4zhnqqO7+diWSh5kE48slQMrNyC31mfFs2ovffauL9o9zX8hSByhqI028/VZjR40
niMHz3cSaE5SONn1aqAk8Jrl7zkJJ8YGS+bdKmAE5MRxCB0=
-----END CERTIFICATE-----
