Certificate:
    Data:
        Version: 3 (0x2)
        Serial Number: 1 (0x1)
        Signature Algorithm: sha256WithRSAEncryption
        Issuer: CN=Common Name (eg, fully qualified host name), ST=State or Province Name (full name), C=FR/emailAddress=Email@Address, O=Organization Name (eg, company), OU=Organizational Unit Name (eg, section)
        Validity
            Not Before: Apr  2 22:11:58 2023 GMT
            Not After : Apr  1 22:11:58 2024 GMT
        Subject: CN=oeui, ST=oeui , C=ip/emailAddress=,y.dy, O=oeui, OU=oeui
        Subject Public Key Info:
            Public Key Algorithm: rsaEncryption
                RSA Public-Key: (2048 bit)
                Modulus:
                    00:a0:fd:e3:ae:83:7e:a2:fb:ff:18:42:78:3a:a4:
                    f8:80:f9:12:5e:7b:4a:8e:b9:49:af:df:27:bd:79:
                    14:55:d6:4e:d3:5a:55:fe:00:d5:14:09:cf:9c:23:
                    af:9e:d0:85:48:4d:66:3f:be:e5:66:c7:8b:3b:54:
                    e7:dc:2d:ee:eb:49:34:e9:67:65:4a:23:82:ec:d3:
                    5d:fe:6d:c8:2f:56:a0:4a:a9:20:82:c5:49:b8:1e:
                    b2:cb:a1:1a:63:3d:b1:16:29:43:c3:c0:01:51:91:
                    75:4d:49:8d:0f:6a:91:6c:06:e7:ca:fc:45:b6:62:
                    0a:3f:fa:cd:1a:af:7a:c1:37:cd:1b:f1:96:21:24:
                    c6:37:d4:38:bb:66:c4:60:73:d6:8e:89:f1:71:81:
                    27:d9:60:07:15:09:6f:dc:74:a4:72:0b:60:0c:08:
                    71:39:8d:07:de:fc:b9:8c:99:a2:20:b8:b4:65:30:
                    69:17:94:52:4d:6a:49:bb:23:c3:19:83:8f:b9:01:
                    11:dd:ff:6a:af:87:e9:95:71:7c:15:35:e2:00:13:
                    42:23:40:0d:ea:23:f5:14:0e:56:09:89:2e:02:74:
                    56:bd:bd:e8:11:7f:b2:c6:c3:89:82:c6:2e:ef:f9:
                    21:70:1b:ea:45:0f:d9:13:78:cb:7f:de:4e:fb:ee:
                    f7:cb
                Exponent: 65537 (0x10001)
        X509v3 extensions:
            X509v3 Basic Constraints: critical
                CA:TRUE
            X509v3 Subject Alternative Name: 
                DNS:intermediateCA.example.com, IP Address:192.168.0.1
    Signature Algorithm: sha256WithRSAEncryption
         bc:50:14:14:04:7c:4d:5d:19:21:ad:5d:39:d5:6c:61:60:91:
         37:09:34:77:30:92:49:32:92:6c:59:25:64:68:f9:6a:0a:54:
         75:7d:21:03:f8:a9:71:ce:89:3d:49:fa:de:30:9b:90:3a:6c:
         14:fc:90:22:7c:f9:5e:d7:7c:a3:15:0e:27:3a:59:81:6c:24:
         d3:8b:46:a4:3f:ef:ac:4f:3a:6b:ed:80:8c:5e:90:95:37:e1:
         5f:01:01:d7:ec:42:cf:f2:38:f5:3c:39:c2:a8:e6:45:ee:f0:
         ab:7d:67:60:be:5b:b8:e8:4e:b9:e9:bf:2f:d5:78:f0:ed:e0:
         a1:7c:36:4c:c6:8a:8b:83:50:74:6d:a0:f8:6b:41:ad:52:5b:
         45:cf:e2:e5:cd:89:6e:db:d3:3e:67:ec:01:0f:fe:60:7f:4b:
         e8:2a:2e:c6:db:bf:a3:c9:26:76:c0:03:8f:d8:df:30:ad:cd:
         01:34:92:8d:0d:0b:08:e9:06:5e:6a:70:56:8c:84:d8:67:ac:
         94:e2:0f:84:e4:eb:94:29:95:ff:c1:00:5c:3d:00:5c:da:01:
         9a:a9:2d:90:38:d6:06:aa:93:fd:97:a8:30:8f:a2:7f:46:ae:
         fa:2c:11:9b:89:2a:a9:88:91:36:19:06:6b:f7:1f:66:b2:bd:
         89:a4:39:12
-----BEGIN CERTIFICATE-----
MIIEBTCCAu2gAwIBAgIBATANBgkqhkiG9w0BAQsFADCB6TE0MDIGA1UEAwwrQ29t
bW9uIE5hbWUgKGVnLCBmdWxseSBxdWFsaWZpZWQgaG9zdCBuYW1lKTErMCkGA1UE
CAwiU3RhdGUgb3IgUHJvdmluY2UgTmFtZSAoZnVsbCBuYW1lKTELMAkGA1UEBhMC
RlIxHDAaBgkqhkiG9w0BCQEWDUVtYWlsQEFkZHJlc3MxKDAmBgNVBAoMH09yZ2Fu
aXphdGlvbiBOYW1lIChlZywgY29tcGFueSkxLzAtBgNVBAsMJk9yZ2FuaXphdGlv
bmFsIFVuaXQgTmFtZSAoZWcsIHNlY3Rpb24pMB4XDTIzMDQwMjIyMTE1OFoXDTI0
MDQwMTIyMTE1OFowYDENMAsGA1UEAwwEb2V1aTEOMAwGA1UECAwFb2V1aSAxCzAJ
BgNVBAYTAmlwMRQwEgYJKoZIhvcNAQkBFgUseS5keTENMAsGA1UECgwEb2V1aTEN
MAsGA1UECwwEb2V1aTCCASIwDQYJKoZIhvcNAQEBBQADggEPADCCAQoCggEBAKD9
466DfqL7/xhCeDqk+ID5El57So65Sa/fJ715FFXWTtNaVf4A1RQJz5wjr57QhUhN
Zj++5WbHiztU59wt7utJNOlnZUojguzTXf5tyC9WoEqpIILFSbgessuhGmM9sRYp
Q8PAAVGRdU1JjQ9qkWwG58r8RbZiCj/6zRqvesE3zRvxliEkxjfUOLtmxGBz1o6J
8XGBJ9lgBxUJb9x0pHILYAwIcTmNB978uYyZoiC4tGUwaReUUk1qSbsjwxmDj7kB
Ed3/aq+H6ZVxfBU14gATQiNADeoj9RQOVgmJLgJ0Vr296BF/ssbDiYLGLu/5IXAb
6kUP2RN4y3/eTvvu98sCAwEAAaNAMD4wDwYDVR0TAQH/BAUwAwEB/zArBgNVHREE
JDAighppbnRlcm1lZGlhdGVDQS5leGFtcGxlLmNvbYcEwKgAATANBgkqhkiG9w0B
AQsFAAOCAQEAvFAUFAR8TV0ZIa1dOdVsYWCRNwk0dzCSSTKSbFklZGj5agpUdX0h
A/ipcc6JPUn63jCbkDpsFPyQInz5Xtd8oxUOJzpZgWwk04tGpD/vrE86a+2AjF6Q
lTfhXwEB1+xCz/I49Tw5wqjmRe7wq31nYL5buOhOuem/L9V48O3goXw2TMaKi4NQ
dG2g+GtBrVJbRc/i5c2JbtvTPmfsAQ/+YH9L6Couxtu/o8kmdsADj9jfMK3NATSS
jQ0LCOkGXmpwVoyE2GeslOIPhOTrlCmV/8EAXD0AXNoBmqktkDjWBqqT/ZeoMI+i
f0au+iwRm4kqqYiRNhkGa/cfZrK9iaQ5Eg==
-----END CERTIFICATE-----
